Archive member included to satisfy reference by file (symbol)

/usr/lib/gcc/arm-none-eabi/13.2.1/../../../arm-none-eabi/lib/thumb/v7e-m+dp/hard/libc_nano.a(libc_a-memcpy.o)
                              /tmp/ccPtSApq.o (memcpy)

Discarded input sections

 .group         0x00000000        0xc /tmp/ccIYB0BO.o
 .group         0x00000000        0xc /tmp/ccIYB0BO.o
 .group         0x00000000        0xc /tmp/ccIYB0BO.o
 .group         0x00000000        0xc /tmp/ccIYB0BO.o
 .group         0x00000000        0xc /tmp/ccIYB0BO.o
 .group         0x00000000        0xc /tmp/ccIYB0BO.o
 .group         0x00000000        0xc /tmp/ccIYB0BO.o
 .group         0x00000000        0xc /tmp/ccIYB0BO.o
 .group         0x00000000        0xc /tmp/ccIYB0BO.o
 .group         0x00000000        0xc /tmp/ccIYB0BO.o
 .group         0x00000000        0xc /tmp/ccIYB0BO.o
 .group         0x00000000        0xc /tmp/ccIYB0BO.o
 .group         0x00000000        0xc /tmp/ccIYB0BO.o
 .group         0x00000000        0xc /tmp/ccIYB0BO.o
 .group         0x00000000        0xc /tmp/ccIYB0BO.o
 .group         0x00000000        0xc /tmp/ccIYB0BO.o
 .group         0x00000000        0xc /tmp/ccIYB0BO.o
 .group         0x00000000        0xc /tmp/ccIYB0BO.o
 .group         0x00000000        0xc /tmp/ccIYB0BO.o
 .group         0x00000000        0xc /tmp/ccIYB0BO.o
 .group         0x00000000        0xc /tmp/ccIYB0BO.o
 .group         0x00000000        0xc /tmp/ccIYB0BO.o
 .group         0x00000000        0xc /tmp/ccIYB0BO.o
 .group         0x00000000        0xc /tmp/ccIYB0BO.o
 .group         0x00000000        0xc /tmp/ccIYB0BO.o
 .group         0x00000000        0xc /tmp/ccIYB0BO.o
 .group         0x00000000        0xc /tmp/ccIYB0BO.o
 .group         0x00000000        0xc /tmp/ccIYB0BO.o
 .group         0x00000000        0xc /tmp/ccIYB0BO.o
 .group         0x00000000        0xc /tmp/ccIYB0BO.o
 .group         0x00000000        0xc /tmp/ccIYB0BO.o
 .group         0x00000000        0xc /tmp/ccIYB0BO.o
 .group         0x00000000        0xc /tmp/ccIYB0BO.o
 .group         0x00000000        0xc /tmp/ccIYB0BO.o
 .group         0x00000000        0xc /tmp/ccIYB0BO.o
 .group         0x00000000        0xc /tmp/ccIYB0BO.o
 .text          0x00000000        0x0 /tmp/ccIYB0BO.o
 .data          0x00000000        0x0 /tmp/ccIYB0BO.o
 .bss           0x00000000        0x0 /tmp/ccIYB0BO.o
 .bss.flash_status
                0x00000000        0x4 /tmp/ccIYB0BO.o
 .bss.temp      0x00000000       0x40 /tmp/ccIYB0BO.o
 .group         0x00000000        0xc /tmp/ccgdoYx5.o
 .group         0x00000000        0xc /tmp/ccgdoYx5.o
 .text          0x00000000        0x0 /tmp/ccgdoYx5.o
 .data          0x00000000        0x0 /tmp/ccgdoYx5.o
 .bss           0x00000000        0x0 /tmp/ccgdoYx5.o
 .text.SysTick_IRQHandler
                0x00000000        0x8 /tmp/ccgdoYx5.o
 .text.FDCAN1_IT0_IRQHandler
                0x00000000        0x8 /tmp/ccgdoYx5.o
 .text.SPI4_IRQHandler
                0x00000000        0x8 /tmp/ccgdoYx5.o
 .debug_macro   0x00000000      0xade /tmp/ccgdoYx5.o
 .debug_macro   0x00000000      0x34e /tmp/ccgdoYx5.o
 .group         0x00000000        0xc /tmp/ccKHLShl.o
 .group         0x00000000        0xc /tmp/ccKHLShl.o
 .group         0x00000000        0xc /tmp/ccKHLShl.o
 .group         0x00000000        0xc /tmp/ccKHLShl.o
 .group         0x00000000        0xc /tmp/ccKHLShl.o
 .group         0x00000000        0xc /tmp/ccKHLShl.o
 .group         0x00000000        0xc /tmp/ccKHLShl.o
 .group         0x00000000        0xc /tmp/ccKHLShl.o
 .group         0x00000000        0xc /tmp/ccKHLShl.o
 .group         0x00000000        0xc /tmp/ccKHLShl.o
 .group         0x00000000        0xc /tmp/ccKHLShl.o
 .group         0x00000000        0xc /tmp/ccKHLShl.o
 .group         0x00000000        0xc /tmp/ccKHLShl.o
 .group         0x00000000        0xc /tmp/ccKHLShl.o
 .group         0x00000000        0xc /tmp/ccKHLShl.o
 .group         0x00000000        0xc /tmp/ccKHLShl.o
 .group         0x00000000        0xc /tmp/ccKHLShl.o
 .group         0x00000000        0xc /tmp/ccKHLShl.o
 .group         0x00000000        0xc /tmp/ccKHLShl.o
 .group         0x00000000        0xc /tmp/ccKHLShl.o
 .group         0x00000000        0xc /tmp/ccKHLShl.o
 .group         0x00000000        0xc /tmp/ccKHLShl.o
 .group         0x00000000        0xc /tmp/ccKHLShl.o
 .group         0x00000000        0xc /tmp/ccKHLShl.o
 .group         0x00000000        0xc /tmp/ccKHLShl.o
 .group         0x00000000        0xc /tmp/ccKHLShl.o
 .group         0x00000000        0xc /tmp/ccKHLShl.o
 .group         0x00000000        0xc /tmp/ccKHLShl.o
 .text          0x00000000        0x0 /tmp/ccKHLShl.o
 .data          0x00000000        0x0 /tmp/ccKHLShl.o
 .bss           0x00000000        0x0 /tmp/ccKHLShl.o
 .debug_macro   0x00000000      0xade /tmp/ccKHLShl.o
 .debug_macro   0x00000000       0x29 /tmp/ccKHLShl.o
 .debug_macro   0x00000000       0x22 /tmp/ccKHLShl.o
 .debug_macro   0x00000000       0x54 /tmp/ccKHLShl.o
 .debug_macro   0x00000000       0x94 /tmp/ccKHLShl.o
 .debug_macro   0x00000000       0x43 /tmp/ccKHLShl.o
 .debug_macro   0x00000000       0x16 /tmp/ccKHLShl.o
 .debug_macro   0x00000000       0x9b /tmp/ccKHLShl.o
 .debug_macro   0x00000000       0x57 /tmp/ccKHLShl.o
 .debug_macro   0x00000000      0x370 /tmp/ccKHLShl.o
 .debug_macro   0x00000000       0x16 /tmp/ccKHLShl.o
 .debug_macro   0x00000000       0x4a /tmp/ccKHLShl.o
 .debug_macro   0x00000000       0x34 /tmp/ccKHLShl.o
 .debug_macro   0x00000000       0x10 /tmp/ccKHLShl.o
 .debug_macro   0x00000000       0x52 /tmp/ccKHLShl.o
 .debug_macro   0x00000000       0x8e /tmp/ccKHLShl.o
 .debug_macro   0x00000000       0x1c /tmp/ccKHLShl.o
 .debug_macro   0x00000000      0x177 /tmp/ccKHLShl.o
 .debug_macro   0x00000000       0x16 /tmp/ccKHLShl.o
 .debug_macro   0x00000000       0x29 /tmp/ccKHLShl.o
 .debug_macro   0x00000000      0x103 /tmp/ccKHLShl.o
 .debug_macro   0x00000000      0x34e /tmp/ccKHLShl.o
 .debug_macro   0x00000000       0x3c /tmp/ccKHLShl.o
 .debug_macro   0x00000000       0x22 /tmp/ccKHLShl.o
 .debug_macro   0x00000000      0x158 /tmp/ccKHLShl.o
 .group         0x00000000        0xc /tmp/ccm1xc3r.o
 .group         0x00000000        0xc /tmp/ccm1xc3r.o
 .group         0x00000000        0xc /tmp/ccm1xc3r.o
 .group         0x00000000        0xc /tmp/ccm1xc3r.o
 .group         0x00000000        0xc /tmp/ccm1xc3r.o
 .group         0x00000000        0xc /tmp/ccm1xc3r.o
 .group         0x00000000        0xc /tmp/ccm1xc3r.o
 .group         0x00000000        0xc /tmp/ccm1xc3r.o
 .group         0x00000000        0xc /tmp/ccm1xc3r.o
 .group         0x00000000        0xc /tmp/ccm1xc3r.o
 .group         0x00000000        0xc /tmp/ccm1xc3r.o
 .group         0x00000000        0xc /tmp/ccm1xc3r.o
 .group         0x00000000        0xc /tmp/ccm1xc3r.o
 .group         0x00000000        0xc /tmp/ccm1xc3r.o
 .group         0x00000000        0xc /tmp/ccm1xc3r.o
 .group         0x00000000        0xc /tmp/ccm1xc3r.o
 .group         0x00000000        0xc /tmp/ccm1xc3r.o
 .group         0x00000000        0xc /tmp/ccm1xc3r.o
 .group         0x00000000        0xc /tmp/ccm1xc3r.o
 .group         0x00000000        0xc /tmp/ccm1xc3r.o
 .group         0x00000000        0xc /tmp/ccm1xc3r.o
 .group         0x00000000        0xc /tmp/ccm1xc3r.o
 .group         0x00000000        0xc /tmp/ccm1xc3r.o
 .group         0x00000000        0xc /tmp/ccm1xc3r.o
 .group         0x00000000        0xc /tmp/ccm1xc3r.o
 .group         0x00000000        0xc /tmp/ccm1xc3r.o
 .group         0x00000000        0xc /tmp/ccm1xc3r.o
 .group         0x00000000        0xc /tmp/ccm1xc3r.o
 .group         0x00000000        0xc /tmp/ccm1xc3r.o
 .group         0x00000000        0xc /tmp/ccm1xc3r.o
 .text          0x00000000        0x0 /tmp/ccm1xc3r.o
 .data          0x00000000        0x0 /tmp/ccm1xc3r.o
 .bss           0x00000000        0x0 /tmp/ccm1xc3r.o
 .data.chargevoltage
                0x00000000        0x2 /tmp/ccm1xc3r.o
 .data.chargecurrent
                0x00000000        0x2 /tmp/ccm1xc3r.o
 .data.disvoltage
                0x00000000        0x2 /tmp/ccm1xc3r.o
 .data.discurrent
                0x00000000        0x2 /tmp/ccm1xc3r.o
 .bss.mes       0x00000000        0x8 /tmp/ccm1xc3r.o
 .data.bmsname  0x00000000        0x8 /tmp/ccm1xc3r.o
 .data.bmsmanu  0x00000000        0x8 /tmp/ccm1xc3r.o
 .data.SOC      0x00000000        0x4 /tmp/ccm1xc3r.o
 .data.PackVoltage
                0x00000000        0x8 /tmp/ccm1xc3r.o
 .data.AvgTemperature
                0x00000000        0x4 /tmp/ccm1xc3r.o
 .bss.currentact
                0x00000000        0x2 /tmp/ccm1xc3r.o
 .debug_macro   0x00000000      0xade /tmp/ccm1xc3r.o
 .debug_macro   0x00000000       0x22 /tmp/ccm1xc3r.o
 .debug_macro   0x00000000       0x54 /tmp/ccm1xc3r.o
 .debug_macro   0x00000000       0x29 /tmp/ccm1xc3r.o
 .debug_macro   0x00000000       0x94 /tmp/ccm1xc3r.o
 .debug_macro   0x00000000       0x43 /tmp/ccm1xc3r.o
 .debug_macro   0x00000000      0x103 /tmp/ccm1xc3r.o
 .debug_macro   0x00000000       0x3a /tmp/ccm1xc3r.o
 .debug_macro   0x00000000      0x34e /tmp/ccm1xc3r.o
 .debug_macro   0x00000000       0x89 /tmp/ccm1xc3r.o
 .debug_macro   0x00000000      0x379 /tmp/ccm1xc3r.o
 .debug_macro   0x00000000       0x16 /tmp/ccm1xc3r.o
 .debug_macro   0x00000000       0xa5 /tmp/ccm1xc3r.o
 .debug_macro   0x00000000       0x9b /tmp/ccm1xc3r.o
 .debug_macro   0x00000000       0x57 /tmp/ccm1xc3r.o
 .debug_macro   0x00000000      0x370 /tmp/ccm1xc3r.o
 .debug_macro   0x00000000       0x16 /tmp/ccm1xc3r.o
 .debug_macro   0x00000000       0x4a /tmp/ccm1xc3r.o
 .debug_macro   0x00000000       0x34 /tmp/ccm1xc3r.o
 .debug_macro   0x00000000       0x10 /tmp/ccm1xc3r.o
 .debug_macro   0x00000000       0x52 /tmp/ccm1xc3r.o
 .debug_macro   0x00000000       0x8e /tmp/ccm1xc3r.o
 .debug_macro   0x00000000       0x1c /tmp/ccm1xc3r.o
 .debug_macro   0x00000000      0x177 /tmp/ccm1xc3r.o
 .debug_macro   0x00000000       0x16 /tmp/ccm1xc3r.o
 .debug_macro   0x00000000       0x29 /tmp/ccm1xc3r.o
 .debug_macro   0x00000000       0x22 /tmp/ccm1xc3r.o
 .debug_macro   0x00000000       0x16 /tmp/ccm1xc3r.o
 .debug_macro   0x00000000       0x3c /tmp/ccm1xc3r.o
 .debug_macro   0x00000000      0x158 /tmp/ccm1xc3r.o
 .group         0x00000000        0xc /tmp/ccPtSApq.o
 .group         0x00000000        0xc /tmp/ccPtSApq.o
 .group         0x00000000        0xc /tmp/ccPtSApq.o
 .group         0x00000000        0xc /tmp/ccPtSApq.o
 .group         0x00000000        0xc /tmp/ccPtSApq.o
 .group         0x00000000        0xc /tmp/ccPtSApq.o
 .group         0x00000000        0xc /tmp/ccPtSApq.o
 .group         0x00000000        0xc /tmp/ccPtSApq.o
 .group         0x00000000        0xc /tmp/ccPtSApq.o
 .group         0x00000000        0xc /tmp/ccPtSApq.o
 .group         0x00000000        0xc /tmp/ccPtSApq.o
 .group         0x00000000        0xc /tmp/ccPtSApq.o
 .group         0x00000000        0xc /tmp/ccPtSApq.o
 .group         0x00000000        0xc /tmp/ccPtSApq.o
 .group         0x00000000        0xc /tmp/ccPtSApq.o
 .group         0x00000000        0xc /tmp/ccPtSApq.o
 .group         0x00000000        0xc /tmp/ccPtSApq.o
 .group         0x00000000        0xc /tmp/ccPtSApq.o
 .group         0x00000000        0xc /tmp/ccPtSApq.o
 .group         0x00000000        0xc /tmp/ccPtSApq.o
 .group         0x00000000        0xc /tmp/ccPtSApq.o
 .group         0x00000000        0xc /tmp/ccPtSApq.o
 .group         0x00000000        0xc /tmp/ccPtSApq.o
 .group         0x00000000        0xc /tmp/ccPtSApq.o
 .group         0x00000000        0xc /tmp/ccPtSApq.o
 .group         0x00000000        0xc /tmp/ccPtSApq.o
 .group         0x00000000        0xc /tmp/ccPtSApq.o
 .group         0x00000000        0xc /tmp/ccPtSApq.o
 .group         0x00000000        0xc /tmp/ccPtSApq.o
 .text          0x00000000        0x0 /tmp/ccPtSApq.o
 .data          0x00000000        0x0 /tmp/ccPtSApq.o
 .bss           0x00000000        0x0 /tmp/ccPtSApq.o
 .debug_macro   0x00000000      0xade /tmp/ccPtSApq.o
 .debug_macro   0x00000000       0x29 /tmp/ccPtSApq.o
 .debug_macro   0x00000000       0x22 /tmp/ccPtSApq.o
 .debug_macro   0x00000000       0x54 /tmp/ccPtSApq.o
 .debug_macro   0x00000000       0x94 /tmp/ccPtSApq.o
 .debug_macro   0x00000000       0x43 /tmp/ccPtSApq.o
 .debug_macro   0x00000000       0x34 /tmp/ccPtSApq.o
 .debug_macro   0x00000000       0x16 /tmp/ccPtSApq.o
 .debug_macro   0x00000000      0x11c /tmp/ccPtSApq.o
 .debug_macro   0x00000000       0x9b /tmp/ccPtSApq.o
 .debug_macro   0x00000000       0x57 /tmp/ccPtSApq.o
 .debug_macro   0x00000000      0x370 /tmp/ccPtSApq.o
 .debug_macro   0x00000000       0x16 /tmp/ccPtSApq.o
 .debug_macro   0x00000000       0x4a /tmp/ccPtSApq.o
 .debug_macro   0x00000000       0x34 /tmp/ccPtSApq.o
 .debug_macro   0x00000000       0x10 /tmp/ccPtSApq.o
 .debug_macro   0x00000000       0x52 /tmp/ccPtSApq.o
 .debug_macro   0x00000000       0x8e /tmp/ccPtSApq.o
 .debug_macro   0x00000000       0x1c /tmp/ccPtSApq.o
 .debug_macro   0x00000000      0x177 /tmp/ccPtSApq.o
 .debug_macro   0x00000000       0x16 /tmp/ccPtSApq.o
 .debug_macro   0x00000000       0x29 /tmp/ccPtSApq.o
 .debug_macro   0x00000000      0x103 /tmp/ccPtSApq.o
 .debug_macro   0x00000000      0x34e /tmp/ccPtSApq.o
 .debug_macro   0x00000000       0x3c /tmp/ccPtSApq.o
 .debug_macro   0x00000000      0x379 /tmp/ccPtSApq.o
 .debug_macro   0x00000000       0x22 /tmp/ccPtSApq.o
 .debug_macro   0x00000000       0x16 /tmp/ccPtSApq.o
 .debug_macro   0x00000000      0x158 /tmp/ccPtSApq.o
 .group         0x00000000        0xc /tmp/ccMKbytr.o
 .group         0x00000000        0xc /tmp/ccMKbytr.o
 .group         0x00000000        0xc /tmp/ccMKbytr.o
 .group         0x00000000        0xc /tmp/ccMKbytr.o
 .group         0x00000000        0xc /tmp/ccMKbytr.o
 .group         0x00000000        0xc /tmp/ccMKbytr.o
 .group         0x00000000        0xc /tmp/ccMKbytr.o
 .group         0x00000000        0xc /tmp/ccMKbytr.o
 .group         0x00000000        0xc /tmp/ccMKbytr.o
 .group         0x00000000        0xc /tmp/ccMKbytr.o
 .group         0x00000000        0xc /tmp/ccMKbytr.o
 .group         0x00000000        0xc /tmp/ccMKbytr.o
 .group         0x00000000        0xc /tmp/ccMKbytr.o
 .group         0x00000000        0xc /tmp/ccMKbytr.o
 .group         0x00000000        0xc /tmp/ccMKbytr.o
 .group         0x00000000        0xc /tmp/ccMKbytr.o
 .group         0x00000000        0xc /tmp/ccMKbytr.o
 .group         0x00000000        0xc /tmp/ccMKbytr.o
 .group         0x00000000        0xc /tmp/ccMKbytr.o
 .group         0x00000000        0xc /tmp/ccMKbytr.o
 .group         0x00000000        0xc /tmp/ccMKbytr.o
 .group         0x00000000        0xc /tmp/ccMKbytr.o
 .group         0x00000000        0xc /tmp/ccMKbytr.o
 .group         0x00000000        0xc /tmp/ccMKbytr.o
 .group         0x00000000        0xc /tmp/ccMKbytr.o
 .group         0x00000000        0xc /tmp/ccMKbytr.o
 .group         0x00000000        0xc /tmp/ccMKbytr.o
 .group         0x00000000        0xc /tmp/ccMKbytr.o
 .text          0x00000000        0x0 /tmp/ccMKbytr.o
 .data          0x00000000        0x0 /tmp/ccMKbytr.o
 .bss           0x00000000        0x0 /tmp/ccMKbytr.o
 .debug_macro   0x00000000      0xade /tmp/ccMKbytr.o
 .debug_macro   0x00000000       0x22 /tmp/ccMKbytr.o
 .debug_macro   0x00000000       0x54 /tmp/ccMKbytr.o
 .debug_macro   0x00000000       0x29 /tmp/ccMKbytr.o
 .debug_macro   0x00000000       0x94 /tmp/ccMKbytr.o
 .debug_macro   0x00000000       0x43 /tmp/ccMKbytr.o
 .debug_macro   0x00000000      0x103 /tmp/ccMKbytr.o
 .debug_macro   0x00000000       0x3a /tmp/ccMKbytr.o
 .debug_macro   0x00000000      0x34e /tmp/ccMKbytr.o
 .debug_macro   0x00000000       0x89 /tmp/ccMKbytr.o
 .debug_macro   0x00000000      0x379 /tmp/ccMKbytr.o
 .debug_macro   0x00000000       0x1c /tmp/ccMKbytr.o
 .debug_macro   0x00000000       0x57 /tmp/ccMKbytr.o
 .debug_macro   0x00000000      0x370 /tmp/ccMKbytr.o
 .debug_macro   0x00000000       0x9b /tmp/ccMKbytr.o
 .debug_macro   0x00000000       0x10 /tmp/ccMKbytr.o
 .debug_macro   0x00000000       0x16 /tmp/ccMKbytr.o
 .debug_macro   0x00000000       0x4a /tmp/ccMKbytr.o
 .debug_macro   0x00000000       0x34 /tmp/ccMKbytr.o
 .debug_macro   0x00000000       0x10 /tmp/ccMKbytr.o
 .debug_macro   0x00000000       0x52 /tmp/ccMKbytr.o
 .debug_macro   0x00000000       0x8e /tmp/ccMKbytr.o
 .debug_macro   0x00000000       0x1c /tmp/ccMKbytr.o
 .debug_macro   0x00000000      0x177 /tmp/ccMKbytr.o
 .debug_macro   0x00000000       0x16 /tmp/ccMKbytr.o
 .debug_macro   0x00000000      0x146 /tmp/ccMKbytr.o
 .group         0x00000000        0xc /tmp/ccAwe0Ou.o
 .group         0x00000000        0xc /tmp/ccAwe0Ou.o
 .group         0x00000000        0xc /tmp/ccAwe0Ou.o
 .group         0x00000000        0xc /tmp/ccAwe0Ou.o
 .group         0x00000000        0xc /tmp/ccAwe0Ou.o
 .group         0x00000000        0xc /tmp/ccAwe0Ou.o
 .group         0x00000000        0xc /tmp/ccAwe0Ou.o
 .group         0x00000000        0xc /tmp/ccAwe0Ou.o
 .group         0x00000000        0xc /tmp/ccAwe0Ou.o
 .group         0x00000000        0xc /tmp/ccAwe0Ou.o
 .group         0x00000000        0xc /tmp/ccAwe0Ou.o
 .text          0x00000000        0x0 /tmp/ccAwe0Ou.o
 .data          0x00000000        0x0 /tmp/ccAwe0Ou.o
 .bss           0x00000000        0x0 /tmp/ccAwe0Ou.o
 .text.lenghtofarray
                0x00000000       0x2e /tmp/ccAwe0Ou.o
 .text.int2char
                0x00000000       0xb8 /tmp/ccAwe0Ou.o
 .debug_info    0x00000000      0x115 /tmp/ccAwe0Ou.o
 .debug_abbrev  0x00000000       0xc4 /tmp/ccAwe0Ou.o
 .debug_aranges
                0x00000000       0x28 /tmp/ccAwe0Ou.o
 .debug_rnglists
                0x00000000       0x1a /tmp/ccAwe0Ou.o
 .debug_macro   0x00000000       0x97 /tmp/ccAwe0Ou.o
 .debug_macro   0x00000000      0xade /tmp/ccAwe0Ou.o
 .debug_macro   0x00000000       0x22 /tmp/ccAwe0Ou.o
 .debug_macro   0x00000000       0x54 /tmp/ccAwe0Ou.o
 .debug_macro   0x00000000       0x29 /tmp/ccAwe0Ou.o
 .debug_macro   0x00000000       0x94 /tmp/ccAwe0Ou.o
 .debug_macro   0x00000000       0x43 /tmp/ccAwe0Ou.o
 .debug_macro   0x00000000      0x103 /tmp/ccAwe0Ou.o
 .debug_macro   0x00000000       0x3a /tmp/ccAwe0Ou.o
 .debug_macro   0x00000000      0x34e /tmp/ccAwe0Ou.o
 .debug_macro   0x00000000       0x89 /tmp/ccAwe0Ou.o
 .debug_macro   0x00000000      0x379 /tmp/ccAwe0Ou.o
 .debug_line    0x00000000      0x202 /tmp/ccAwe0Ou.o
 .debug_str     0x00000000     0x4e44 /tmp/ccAwe0Ou.o
 .comment       0x00000000       0x27 /tmp/ccAwe0Ou.o
 .debug_frame   0x00000000       0x60 /tmp/ccAwe0Ou.o
 .ARM.attributes
                0x00000000       0x32 /tmp/ccAwe0Ou.o
 .group         0x00000000        0xc /tmp/ccJBD2DP.o
 .group         0x00000000        0xc /tmp/ccJBD2DP.o
 .group         0x00000000        0xc /tmp/ccJBD2DP.o
 .group         0x00000000        0xc /tmp/ccJBD2DP.o
 .group         0x00000000        0xc /tmp/ccJBD2DP.o
 .group         0x00000000        0xc /tmp/ccJBD2DP.o
 .group         0x00000000        0xc /tmp/ccJBD2DP.o
 .group         0x00000000        0xc /tmp/ccJBD2DP.o
 .group         0x00000000        0xc /tmp/ccJBD2DP.o
 .group         0x00000000        0xc /tmp/ccJBD2DP.o
 .group         0x00000000        0xc /tmp/ccJBD2DP.o
 .group         0x00000000        0xc /tmp/ccJBD2DP.o
 .group         0x00000000        0xc /tmp/ccJBD2DP.o
 .group         0x00000000        0xc /tmp/ccJBD2DP.o
 .group         0x00000000        0xc /tmp/ccJBD2DP.o
 .group         0x00000000        0xc /tmp/ccJBD2DP.o
 .group         0x00000000        0xc /tmp/ccJBD2DP.o
 .group         0x00000000        0xc /tmp/ccJBD2DP.o
 .group         0x00000000        0xc /tmp/ccJBD2DP.o
 .group         0x00000000        0xc /tmp/ccJBD2DP.o
 .group         0x00000000        0xc /tmp/ccJBD2DP.o
 .group         0x00000000        0xc /tmp/ccJBD2DP.o
 .group         0x00000000        0xc /tmp/ccJBD2DP.o
 .group         0x00000000        0xc /tmp/ccJBD2DP.o
 .group         0x00000000        0xc /tmp/ccJBD2DP.o
 .group         0x00000000        0xc /tmp/ccJBD2DP.o
 .group         0x00000000        0xc /tmp/ccJBD2DP.o
 .group         0x00000000        0xc /tmp/ccJBD2DP.o
 .group         0x00000000        0xc /tmp/ccJBD2DP.o
 .text          0x00000000        0x0 /tmp/ccJBD2DP.o
 .data          0x00000000        0x0 /tmp/ccJBD2DP.o
 .bss           0x00000000        0x0 /tmp/ccJBD2DP.o
 .text.flash_wait_ready
                0x00000000       0x50 /tmp/ccJBD2DP.o
 .text.flash_erase_sector
                0x00000000       0xe0 /tmp/ccJBD2DP.o
 .text.flash_read_status
                0x00000000       0xcc /tmp/ccJBD2DP.o
 .text.flash_write_enable
                0x00000000       0xb4 /tmp/ccJBD2DP.o
 .text.flash_write_page
                0x00000000      0x124 /tmp/ccJBD2DP.o
 .debug_macro   0x00000000      0xade /tmp/ccJBD2DP.o
 .debug_macro   0x00000000       0x22 /tmp/ccJBD2DP.o
 .debug_macro   0x00000000       0x54 /tmp/ccJBD2DP.o
 .debug_macro   0x00000000       0x29 /tmp/ccJBD2DP.o
 .debug_macro   0x00000000       0x94 /tmp/ccJBD2DP.o
 .debug_macro   0x00000000       0x43 /tmp/ccJBD2DP.o
 .debug_macro   0x00000000      0x103 /tmp/ccJBD2DP.o
 .debug_macro   0x00000000       0x3a /tmp/ccJBD2DP.o
 .debug_macro   0x00000000      0x34e /tmp/ccJBD2DP.o
 .debug_macro   0x00000000       0x89 /tmp/ccJBD2DP.o
 .debug_macro   0x00000000      0x379 /tmp/ccJBD2DP.o
 .debug_macro   0x00000000       0x22 /tmp/ccJBD2DP.o
 .debug_macro   0x00000000       0x16 /tmp/ccJBD2DP.o
 .debug_macro   0x00000000       0xa5 /tmp/ccJBD2DP.o
 .debug_macro   0x00000000       0x9b /tmp/ccJBD2DP.o
 .debug_macro   0x00000000       0x57 /tmp/ccJBD2DP.o
 .debug_macro   0x00000000      0x370 /tmp/ccJBD2DP.o
 .debug_macro   0x00000000       0x16 /tmp/ccJBD2DP.o
 .debug_macro   0x00000000       0x4a /tmp/ccJBD2DP.o
 .debug_macro   0x00000000       0x34 /tmp/ccJBD2DP.o
 .debug_macro   0x00000000       0x10 /tmp/ccJBD2DP.o
 .debug_macro   0x00000000       0x52 /tmp/ccJBD2DP.o
 .debug_macro   0x00000000       0x8e /tmp/ccJBD2DP.o
 .debug_macro   0x00000000       0x1c /tmp/ccJBD2DP.o
 .debug_macro   0x00000000      0x177 /tmp/ccJBD2DP.o
 .debug_macro   0x00000000       0x16 /tmp/ccJBD2DP.o
 .debug_macro   0x00000000       0x29 /tmp/ccJBD2DP.o
 .debug_macro   0x00000000      0x158 /tmp/ccJBD2DP.o
 .data          0x00000000        0x0 /usr/lib/gcc/arm-none-eabi/13.2.1/../../../arm-none-eabi/lib/thumb/v7e-m+dp/hard/libc_nano.a(libc_a-memcpy.o)
 .bss           0x00000000        0x0 /usr/lib/gcc/arm-none-eabi/13.2.1/../../../arm-none-eabi/lib/thumb/v7e-m+dp/hard/libc_nano.a(libc_a-memcpy.o)
 .ARM.extab     0x00000000        0x0 /usr/lib/gcc/arm-none-eabi/13.2.1/../../../arm-none-eabi/lib/thumb/v7e-m+dp/hard/libc_nano.a(libc_a-memcpy.o)
 .eh_frame      0x00000000       0x2c /usr/lib/gcc/arm-none-eabi/13.2.1/../../../arm-none-eabi/lib/thumb/v7e-m+dp/hard/libc_nano.a(libc_a-memcpy.o)

Memory Configuration

Name             Origin             Length             Attributes
flash            0x08000000         0x00100000         xr
dtcm             0x20000000         0x00020000         xrw
axi_sram         0x24000000         0x00060000         xrw
sram1            0x30000000         0x00008000         xrw
sram2            0x30020000         0x00004000         xrw
sram4            0x38000000         0x00010000         xrw
itcm             0x00000000         0x00010000         xrw
backup           0x38800000         0x00001000         xrw
*default*        0x00000000         0xffffffff

Linker script and memory map

LOAD /tmp/ccIYB0BO.o
LOAD /tmp/ccgdoYx5.o
LOAD /tmp/ccKHLShl.o
LOAD /tmp/ccm1xc3r.o
LOAD /tmp/ccPtSApq.o
LOAD /tmp/ccMKbytr.o
LOAD /tmp/ccAwe0Ou.o
LOAD /tmp/ccJBD2DP.o
LOAD /usr/lib/gcc/arm-none-eabi/13.2.1/../../../arm-none-eabi/lib/thumb/v7e-m+dp/hard/libc_nano.a
LOAD /usr/lib/gcc/arm-none-eabi/13.2.1/thumb/v7e-m+dp/hard/libgcc.a
                0x20020000                        _estack = (ORIGIN (dtcm) + LENGTH (dtcm))

.vectors        0x08000000      0x298
 *(.vectors)
 .vectors       0x08000000      0x298 /tmp/ccgdoYx5.o
                0x08000000                tab

.text           0x08000298     0x26b0
 *(.text*)
 .text.clock_init
                0x08000298      0x12c /tmp/ccIYB0BO.o
                0x08000298                clock_init
 .text.systick_init
                0x080003c4       0x34 /tmp/ccIYB0BO.o
 .text.gpio_init_PC0
                0x080003f8       0x54 /tmp/ccIYB0BO.o
                0x080003f8                gpio_init_PC0
 .text.enable_fpu
                0x0800044c       0x28 /tmp/ccIYB0BO.o
                0x0800044c                enable_fpu
 .text.main     0x08000474      0x2f8 /tmp/ccIYB0BO.o
                0x08000474                main
 .text.SysTick_IRQHandler
                0x0800076c       0x44 /tmp/ccIYB0BO.o
                0x0800076c                SysTick_IRQHandler
 .text.FDCAN1_IT0_IRQHandler
                0x080007b0      0x290 /tmp/ccIYB0BO.o
                0x080007b0                FDCAN1_IT0_IRQHandler
 .text._reset   0x08000a40       0x44 /tmp/ccgdoYx5.o
                0x08000a40                _reset
 .text.NMI_Handler
                0x08000a84        0x8 /tmp/ccgdoYx5.o
                0x08000a84                NMI_Handler
 .text.HardFault_Handler
                0x08000a8c        0x8 /tmp/ccgdoYx5.o
                0x08000a8c                HardFault_Handler
 .text.MemManage_Handler
                0x08000a94        0x8 /tmp/ccgdoYx5.o
                0x08000a94                MemManage_Handler
 .text.BusFault_Handler
                0x08000a9c        0x8 /tmp/ccgdoYx5.o
                0x08000a9c                BusFault_Handler
 .text.UsageFault_Handler
                0x08000aa4        0x8 /tmp/ccgdoYx5.o
                0x08000aa4                UsageFault_Handler
 .text.SVCall_Handler
                0x08000aac        0x8 /tmp/ccgdoYx5.o
                0x08000aac                SVCall_Handler
 .text.DebugMon_Handler
                0x08000ab4        0x8 /tmp/ccgdoYx5.o
                0x08000ab4                DebugMon_Handler
 .text.PendSV_Handler
                0x08000abc        0x8 /tmp/ccgdoYx5.o
                0x08000abc                PendSV_Handler
 .text.WWDG1_IRQHandler
                0x08000ac4        0x8 /tmp/ccgdoYx5.o
                0x08000ac4                WWDG1_IRQHandler
 .text.PVD_PVM_IRQHandler
                0x08000acc        0x8 /tmp/ccgdoYx5.o
                0x08000acc                PVD_PVM_IRQHandler
 .text.RTC_TAMP_STAMP_CSS_LSE_IRQHandler
                0x08000ad4        0x8 /tmp/ccgdoYx5.o
                0x08000ad4                RTC_TAMP_STAMP_CSS_LSE_IRQHandler
 .text.RTC_WKUP_IRQHandler
                0x08000adc        0x8 /tmp/ccgdoYx5.o
                0x08000adc                RTC_WKUP_IRQHandler
 .text.FLASH_IRQHandler
                0x08000ae4        0x8 /tmp/ccgdoYx5.o
                0x08000ae4                FLASH_IRQHandler
 .text.RCC_IRQHandler
                0x08000aec        0x8 /tmp/ccgdoYx5.o
                0x08000aec                RCC_IRQHandler
 .text.EXTI0_IRQHandler
                0x08000af4        0x8 /tmp/ccgdoYx5.o
                0x08000af4                EXTI0_IRQHandler
 .text.EXTI1_IRQHandler
                0x08000afc        0x8 /tmp/ccgdoYx5.o
                0x08000afc                EXTI1_IRQHandler
 .text.EXTI2_IRQHandler
                0x08000b04        0x8 /tmp/ccgdoYx5.o
                0x08000b04                EXTI2_IRQHandler
 .text.EXTI3_IRQHandler
                0x08000b0c        0x8 /tmp/ccgdoYx5.o
                0x08000b0c                EXTI3_IRQHandler
 .text.EXTI4_IRQHandler
                0x08000b14        0x8 /tmp/ccgdoYx5.o
                0x08000b14                EXTI4_IRQHandler
 .text.DMA_STR0_IRQHandler
                0x08000b1c        0x8 /tmp/ccgdoYx5.o
                0x08000b1c                DMA_STR0_IRQHandler
 .text.DMA_STR1_IRQHandler
                0x08000b24        0x8 /tmp/ccgdoYx5.o
                0x08000b24                DMA_STR1_IRQHandler
 .text.DMA_STR2_IRQHandler
                0x08000b2c        0x8 /tmp/ccgdoYx5.o
                0x08000b2c                DMA_STR2_IRQHandler
 .text.DMA_STR3_IRQHandler
                0x08000b34        0x8 /tmp/ccgdoYx5.o
                0x08000b34                DMA_STR3_IRQHandler
 .text.DMA_STR4_IRQHandler
                0x08000b3c        0x8 /tmp/ccgdoYx5.o
                0x08000b3c                DMA_STR4_IRQHandler
 .text.DMA_STR5_IRQHandler
                0x08000b44        0x8 /tmp/ccgdoYx5.o
                0x08000b44                DMA_STR5_IRQHandler
 .text.DMA_STR6_IRQHandler
                0x08000b4c        0x8 /tmp/ccgdoYx5.o
                0x08000b4c                DMA_STR6_IRQHandler
 .text.ADC1_2_IRQHandler
                0x08000b54        0x8 /tmp/ccgdoYx5.o
                0x08000b54                ADC1_2_IRQHandler
 .text.FDCAN2_IT0_IRQHandler
                0x08000b5c        0x8 /tmp/ccgdoYx5.o
                0x08000b5c                FDCAN2_IT0_IRQHandler
 .text.FDCAN1_IT1_IRQHandler
                0x08000b64        0x8 /tmp/ccgdoYx5.o
                0x08000b64                FDCAN1_IT1_IRQHandler
 .text.FDCAN2_IT1_IRQHandler
                0x08000b6c        0x8 /tmp/ccgdoYx5.o
                0x08000b6c                FDCAN2_IT1_IRQHandler
 .text.EXTI9_5_IRQHandler
                0x08000b74        0x8 /tmp/ccgdoYx5.o
                0x08000b74                EXTI9_5_IRQHandler
 .text.TIM1_BRK_IRQHandler
                0x08000b7c        0x8 /tmp/ccgdoYx5.o
                0x08000b7c                TIM1_BRK_IRQHandler
 .text.TIM1_UP_IRQHandler
                0x08000b84        0x8 /tmp/ccgdoYx5.o
                0x08000b84                TIM1_UP_IRQHandler
 .text.TIM1_TRG_COM_IRQHandler
                0x08000b8c        0x8 /tmp/ccgdoYx5.o
                0x08000b8c                TIM1_TRG_COM_IRQHandler
 .text.TIM_CC_IRQHandler
                0x08000b94        0x8 /tmp/ccgdoYx5.o
                0x08000b94                TIM_CC_IRQHandler
 .text.TIM2_IRQHandler
                0x08000b9c        0x8 /tmp/ccgdoYx5.o
                0x08000b9c                TIM2_IRQHandler
 .text.TIM3_IRQHandler
                0x08000ba4        0x8 /tmp/ccgdoYx5.o
                0x08000ba4                TIM3_IRQHandler
 .text.TIM4_IRQHandler
                0x08000bac        0x8 /tmp/ccgdoYx5.o
                0x08000bac                TIM4_IRQHandler
 .text.I2C1_EV_IRQHandler
                0x08000bb4        0x8 /tmp/ccgdoYx5.o
                0x08000bb4                I2C1_EV_IRQHandler
 .text.I2C1_ER_IRQHandler
                0x08000bbc        0x8 /tmp/ccgdoYx5.o
                0x08000bbc                I2C1_ER_IRQHandler
 .text.I2C2_EV_IRQHandler
                0x08000bc4        0x8 /tmp/ccgdoYx5.o
                0x08000bc4                I2C2_EV_IRQHandler
 .text.I2C2_ER_IRQHandler
                0x08000bcc        0x8 /tmp/ccgdoYx5.o
                0x08000bcc                I2C2_ER_IRQHandler
 .text.SPI1_IRQHandler
                0x08000bd4        0x8 /tmp/ccgdoYx5.o
                0x08000bd4                SPI1_IRQHandler
 .text.SPI2_IRQHandler
                0x08000bdc        0x8 /tmp/ccgdoYx5.o
                0x08000bdc                SPI2_IRQHandler
 .text.USART1_IRQHandler
                0x08000be4        0x8 /tmp/ccgdoYx5.o
                0x08000be4                USART1_IRQHandler
 .text.USART2_IRQHandler
                0x08000bec        0x8 /tmp/ccgdoYx5.o
                0x08000bec                USART2_IRQHandler
 .text.USART3_IRQHandler
                0x08000bf4        0x8 /tmp/ccgdoYx5.o
                0x08000bf4                USART3_IRQHandler
 .text.EXTI15_10_IRQHandler
                0x08000bfc        0x8 /tmp/ccgdoYx5.o
                0x08000bfc                EXTI15_10_IRQHandler
 .text.RTC_ALARM_IRQHandler
                0x08000c04        0x8 /tmp/ccgdoYx5.o
                0x08000c04                RTC_ALARM_IRQHandler
 .text.TIM8_BRK_TIM12_IRQHandler
                0x08000c0c        0x8 /tmp/ccgdoYx5.o
                0x08000c0c                TIM8_BRK_TIM12_IRQHandler
 .text.TIM8_UP_TIM13_IRQHandler
                0x08000c14        0x8 /tmp/ccgdoYx5.o
                0x08000c14                TIM8_UP_TIM13_IRQHandler
 .text.TIM8_TRG_COM_TIM14_IRQHandler
                0x08000c1c        0x8 /tmp/ccgdoYx5.o
                0x08000c1c                TIM8_TRG_COM_TIM14_IRQHandler
 .text.TIM8_CC_IRQHandler
                0x08000c24        0x8 /tmp/ccgdoYx5.o
                0x08000c24                TIM8_CC_IRQHandler
 .text.DMA1_STR7_IRQHandler
                0x08000c2c        0x8 /tmp/ccgdoYx5.o
                0x08000c2c                DMA1_STR7_IRQHandler
 .text.FMC_IRQHandler
                0x08000c34        0x8 /tmp/ccgdoYx5.o
                0x08000c34                FMC_IRQHandler
 .text.SDMMC1_IRQHandler
                0x08000c3c        0x8 /tmp/ccgdoYx5.o
                0x08000c3c                SDMMC1_IRQHandler
 .text.TIM5_IRQHandler
                0x08000c44        0x8 /tmp/ccgdoYx5.o
                0x08000c44                TIM5_IRQHandler
 .text.SPI3_IRQHandler
                0x08000c4c        0x8 /tmp/ccgdoYx5.o
                0x08000c4c                SPI3_IRQHandler
 .text.UART4_IRQHandler
                0x08000c54        0x8 /tmp/ccgdoYx5.o
                0x08000c54                UART4_IRQHandler
 .text.UART5_IRQHandler
                0x08000c5c        0x8 /tmp/ccgdoYx5.o
                0x08000c5c                UART5_IRQHandler
 .text.TIM6_DAC_IRQHandler
                0x08000c64        0x8 /tmp/ccgdoYx5.o
                0x08000c64                TIM6_DAC_IRQHandler
 .text.TIM7_IRQHandler
                0x08000c6c        0x8 /tmp/ccgdoYx5.o
                0x08000c6c                TIM7_IRQHandler
 .text.DMA2_STR0_IRQHandler
                0x08000c74        0x8 /tmp/ccgdoYx5.o
                0x08000c74                DMA2_STR0_IRQHandler
 .text.DMA2_STR1_IRQHandler
                0x08000c7c        0x8 /tmp/ccgdoYx5.o
                0x08000c7c                DMA2_STR1_IRQHandler
 .text.DMA2_STR2_IRQHandler
                0x08000c84        0x8 /tmp/ccgdoYx5.o
                0x08000c84                DMA2_STR2_IRQHandler
 .text.DMA2_STR3_IRQHandler
                0x08000c8c        0x8 /tmp/ccgdoYx5.o
                0x08000c8c                DMA2_STR3_IRQHandler
 .text.DMA2_STR4_IRQHandler
                0x08000c94        0x8 /tmp/ccgdoYx5.o
                0x08000c94                DMA2_STR4_IRQHandler
 .text.ETH_IRQHandler
                0x08000c9c        0x8 /tmp/ccgdoYx5.o
                0x08000c9c                ETH_IRQHandler
 .text.ETH_WKUP_IRQHandler
                0x08000ca4        0x8 /tmp/ccgdoYx5.o
                0x08000ca4                ETH_WKUP_IRQHandler
 .text.FDCAN_CAL_IRQHandler
                0x08000cac        0x8 /tmp/ccgdoYx5.o
                0x08000cac                FDCAN_CAL_IRQHandler
 .text.DMA2_STR5_IRQHandler
                0x08000cb4        0x8 /tmp/ccgdoYx5.o
                0x08000cb4                DMA2_STR5_IRQHandler
 .text.DMA2_STR6_IRQHandler
                0x08000cbc        0x8 /tmp/ccgdoYx5.o
                0x08000cbc                DMA2_STR6_IRQHandler
 .text.DMA2_STR7_IRQHandler
                0x08000cc4        0x8 /tmp/ccgdoYx5.o
                0x08000cc4                DMA2_STR7_IRQHandler
 .text.USART6_IRQHandler
                0x08000ccc        0x8 /tmp/ccgdoYx5.o
                0x08000ccc                USART6_IRQHandler
 .text.I2C3_EV_IRQHandler
                0x08000cd4        0x8 /tmp/ccgdoYx5.o
                0x08000cd4                I2C3_EV_IRQHandler
 .text.I2C3_ER_IRQHandler
                0x08000cdc        0x8 /tmp/ccgdoYx5.o
                0x08000cdc                I2C3_ER_IRQHandler
 .text.OTG_HS_EP1_OUT_IRQHandler
                0x08000ce4        0x8 /tmp/ccgdoYx5.o
                0x08000ce4                OTG_HS_EP1_OUT_IRQHandler
 .text.OTG_HS_EP1_IN_IRQHandler
                0x08000cec        0x8 /tmp/ccgdoYx5.o
                0x08000cec                OTG_HS_EP1_IN_IRQHandler
 .text.OTG_HS_WKUP_IRQHandler
                0x08000cf4        0x8 /tmp/ccgdoYx5.o
                0x08000cf4                OTG_HS_WKUP_IRQHandler
 .text.OTG_HS_IRQHandler
                0x08000cfc        0x8 /tmp/ccgdoYx5.o
                0x08000cfc                OTG_HS_IRQHandler
 .text.DCMI_IRQHandler
                0x08000d04        0x8 /tmp/ccgdoYx5.o
                0x08000d04                DCMI_IRQHandler
 .text.CRYP_IRQHandler
                0x08000d0c        0x8 /tmp/ccgdoYx5.o
                0x08000d0c                CRYP_IRQHandler
 .text.HASH_RNG_IRQHandler
                0x08000d14        0x8 /tmp/ccgdoYx5.o
                0x08000d14                HASH_RNG_IRQHandler
 .text.FPU_IRQHandler
                0x08000d1c        0x8 /tmp/ccgdoYx5.o
                0x08000d1c                FPU_IRQHandler
 .text.UART7_IRQHandler
                0x08000d24        0x8 /tmp/ccgdoYx5.o
                0x08000d24                UART7_IRQHandler
 .text.UART8_IRQHandler
                0x08000d2c        0x8 /tmp/ccgdoYx5.o
                0x08000d2c                UART8_IRQHandler
 .text.SPI5_IRQHandler
                0x08000d34        0x8 /tmp/ccgdoYx5.o
                0x08000d34                SPI5_IRQHandler
 .text.SPI6_IRQHandler
                0x08000d3c        0x8 /tmp/ccgdoYx5.o
                0x08000d3c                SPI6_IRQHandler
 .text.SAI1_IRQHandler
                0x08000d44        0x8 /tmp/ccgdoYx5.o
                0x08000d44                SAI1_IRQHandler
 .text.LTDC_IRQHandler
                0x08000d4c        0x8 /tmp/ccgdoYx5.o
                0x08000d4c                LTDC_IRQHandler
 .text.LTDC_ER_IRQHandler
                0x08000d54        0x8 /tmp/ccgdoYx5.o
                0x08000d54                LTDC_ER_IRQHandler
 .text.DMA2D_IRQHandler
                0x08000d5c        0x8 /tmp/ccgdoYx5.o
                0x08000d5c                DMA2D_IRQHandler
 .text.SAI2_IRQHandler
                0x08000d64        0x8 /tmp/ccgdoYx5.o
                0x08000d64                SAI2_IRQHandler
 .text.QUADSPI_IRQHandler
                0x08000d6c        0x8 /tmp/ccgdoYx5.o
                0x08000d6c                QUADSPI_IRQHandler
 .text.LPTIM1_IRQHandler
                0x08000d74        0x8 /tmp/ccgdoYx5.o
                0x08000d74                LPTIM1_IRQHandler
 .text.CEC_IRQHandler
                0x08000d7c        0x8 /tmp/ccgdoYx5.o
                0x08000d7c                CEC_IRQHandler
 .text.I2C4_EV_IRQHandler
                0x08000d84        0x8 /tmp/ccgdoYx5.o
                0x08000d84                I2C4_EV_IRQHandler
 .text.I2C4_ER_IRQHandler
                0x08000d8c        0x8 /tmp/ccgdoYx5.o
                0x08000d8c                I2C4_ER_IRQHandler
 .text.SPDIF_IRQHandler
                0x08000d94        0x8 /tmp/ccgdoYx5.o
                0x08000d94                SPDIF_IRQHandler
 .text.OTG_FS_EP1_OUT_IRQHandler
                0x08000d9c        0x8 /tmp/ccgdoYx5.o
                0x08000d9c                OTG_FS_EP1_OUT_IRQHandler
 .text.OTG_FS_EP1_IN_IRQHandler
                0x08000da4        0x8 /tmp/ccgdoYx5.o
                0x08000da4                OTG_FS_EP1_IN_IRQHandler
 .text.OTG_FS_WKUP_IRQHandler
                0x08000dac        0x8 /tmp/ccgdoYx5.o
                0x08000dac                OTG_FS_WKUP_IRQHandler
 .text.OTG_FS_IRQHandler
                0x08000db4        0x8 /tmp/ccgdoYx5.o
                0x08000db4                OTG_FS_IRQHandler
 .text.DMAMUX1_OV_IRQHandler
                0x08000dbc        0x8 /tmp/ccgdoYx5.o
                0x08000dbc                DMAMUX1_OV_IRQHandler
 .text.HRTIM1_MST_IRQHandler
                0x08000dc4        0x8 /tmp/ccgdoYx5.o
                0x08000dc4                HRTIM1_MST_IRQHandler
 .text.HRTIM1_TIMA_IRQHandler
                0x08000dcc        0x8 /tmp/ccgdoYx5.o
                0x08000dcc                HRTIM1_TIMA_IRQHandler
 .text.HRTIM_TIMB_IRQHandler
                0x08000dd4        0x8 /tmp/ccgdoYx5.o
                0x08000dd4                HRTIM_TIMB_IRQHandler
 .text.HRTIM1_TIMC_IRQHandler
                0x08000ddc        0x8 /tmp/ccgdoYx5.o
                0x08000ddc                HRTIM1_TIMC_IRQHandler
 .text.HRTIM1_TIMD_IRQHandler
                0x08000de4        0x8 /tmp/ccgdoYx5.o
                0x08000de4                HRTIM1_TIMD_IRQHandler
 .text.HRTIM_TIME_IRQHandler
                0x08000dec        0x8 /tmp/ccgdoYx5.o
                0x08000dec                HRTIM_TIME_IRQHandler
 .text.HRTIM1_FLT_IRQHandler
                0x08000df4        0x8 /tmp/ccgdoYx5.o
                0x08000df4                HRTIM1_FLT_IRQHandler
 .text.DFSDM1_FLT0_IRQHandler
                0x08000dfc        0x8 /tmp/ccgdoYx5.o
                0x08000dfc                DFSDM1_FLT0_IRQHandler
 .text.DFSDM1_FLT1_IRQHandler
                0x08000e04        0x8 /tmp/ccgdoYx5.o
                0x08000e04                DFSDM1_FLT1_IRQHandler
 .text.DFSDM1_FLT2_IRQHandler
                0x08000e0c        0x8 /tmp/ccgdoYx5.o
                0x08000e0c                DFSDM1_FLT2_IRQHandler
 .text.DFSDM1_FLT3_IRQHandler
                0x08000e14        0x8 /tmp/ccgdoYx5.o
                0x08000e14                DFSDM1_FLT3_IRQHandler
 .text.SAI3_IRQHandler
                0x08000e1c        0x8 /tmp/ccgdoYx5.o
                0x08000e1c                SAI3_IRQHandler
 .text.SWPMI1_IRQHandler
                0x08000e24        0x8 /tmp/ccgdoYx5.o
                0x08000e24                SWPMI1_IRQHandler
 .text.TIM15_IRQHandler
                0x08000e2c        0x8 /tmp/ccgdoYx5.o
                0x08000e2c                TIM15_IRQHandler
 .text.TIM16_IRQHandler
                0x08000e34        0x8 /tmp/ccgdoYx5.o
                0x08000e34                TIM16_IRQHandler
 .text.TIM17_IRQHandler
                0x08000e3c        0x8 /tmp/ccgdoYx5.o
                0x08000e3c                TIM17_IRQHandler
 .text.MDIOS_WKUP_IRQHandler
                0x08000e44        0x8 /tmp/ccgdoYx5.o
                0x08000e44                MDIOS_WKUP_IRQHandler
 .text.MDIOS_IRQHandler
                0x08000e4c        0x8 /tmp/ccgdoYx5.o
                0x08000e4c                MDIOS_IRQHandler
 .text.JPEG_IRQHandler
                0x08000e54        0x8 /tmp/ccgdoYx5.o
                0x08000e54                JPEG_IRQHandler
 .text.MDMA_IRQHandler
                0x08000e5c        0x8 /tmp/ccgdoYx5.o
                0x08000e5c                MDMA_IRQHandler
 .text.SDMMC2_IRQHandler
                0x08000e64        0x8 /tmp/ccgdoYx5.o
                0x08000e64                SDMMC2_IRQHandler
 .text.HSEM0_IRQHandler
                0x08000e6c        0x8 /tmp/ccgdoYx5.o
                0x08000e6c                HSEM0_IRQHandler
 .text.ADC3_IRQHandler
                0x08000e74        0x8 /tmp/ccgdoYx5.o
                0x08000e74                ADC3_IRQHandler
 .text.DMAMUX2_OVR_IRQHandler
                0x08000e7c        0x8 /tmp/ccgdoYx5.o
                0x08000e7c                DMAMUX2_OVR_IRQHandler
 .text.BDMA_CH0_IRQHandler
                0x08000e84        0x8 /tmp/ccgdoYx5.o
                0x08000e84                BDMA_CH0_IRQHandler
 .text.BDMA_CH1_IRQHandler
                0x08000e8c        0x8 /tmp/ccgdoYx5.o
                0x08000e8c                BDMA_CH1_IRQHandler
 .text.BDMA_CH2_IRQHandler
                0x08000e94        0x8 /tmp/ccgdoYx5.o
                0x08000e94                BDMA_CH2_IRQHandler
 .text.BDMA_CH3_IRQHandler
                0x08000e9c        0x8 /tmp/ccgdoYx5.o
                0x08000e9c                BDMA_CH3_IRQHandler
 .text.BDMA_CH4_IRQHandler
                0x08000ea4        0x8 /tmp/ccgdoYx5.o
                0x08000ea4                BDMA_CH4_IRQHandler
 .text.BDMA_CH5_IRQHandler
                0x08000eac        0x8 /tmp/ccgdoYx5.o
                0x08000eac                BDMA_CH5_IRQHandler
 .text.BDMA_CH6_IRQHandler
                0x08000eb4        0x8 /tmp/ccgdoYx5.o
                0x08000eb4                BDMA_CH6_IRQHandler
 .text.BDMA_CH7_IRQHandler
                0x08000ebc        0x8 /tmp/ccgdoYx5.o
                0x08000ebc                BDMA_CH7_IRQHandler
 .text.COMP_IRQHandler
                0x08000ec4        0x8 /tmp/ccgdoYx5.o
                0x08000ec4                COMP_IRQHandler
 .text.LPTIM2_IRQHandler
                0x08000ecc        0x8 /tmp/ccgdoYx5.o
                0x08000ecc                LPTIM2_IRQHandler
 .text.LPTIM3_IRQHandler
                0x08000ed4        0x8 /tmp/ccgdoYx5.o
                0x08000ed4                LPTIM3_IRQHandler
 .text.LPTIM4_IRQHandler
                0x08000edc        0x8 /tmp/ccgdoYx5.o
                0x08000edc                LPTIM4_IRQHandler
 .text.LPTIM5_IRQHandler
                0x08000ee4        0x8 /tmp/ccgdoYx5.o
                0x08000ee4                LPTIM5_IRQHandler
 .text.LPUART_IRQHandler
                0x08000eec        0x8 /tmp/ccgdoYx5.o
                0x08000eec                LPUART_IRQHandler
 .text.WWDG1_RST_IRQHandler
                0x08000ef4        0x8 /tmp/ccgdoYx5.o
                0x08000ef4                WWDG1_RST_IRQHandler
 .text.CRS_IRQHandler
                0x08000efc        0x8 /tmp/ccgdoYx5.o
                0x08000efc                CRS_IRQHandler
 .text.RAMECC1_IRQHandler
                0x08000f04        0x8 /tmp/ccgdoYx5.o
                0x08000f04                RAMECC1_IRQHandler
 .text.SAI4_IRQHandler
                0x08000f0c        0x8 /tmp/ccgdoYx5.o
                0x08000f0c                SAI4_IRQHandler
 .text.WKUP_IRQHandler
                0x08000f14        0x8 /tmp/ccgdoYx5.o
                0x08000f14                WKUP_IRQHandler
 .text.RTC_init
                0x08000f1c      0x190 /tmp/ccKHLShl.o
                0x08000f1c                RTC_init
 .text.RTC_read_datetime
                0x080010ac      0x134 /tmp/ccKHLShl.o
                0x080010ac                RTC_read_datetime
 .text.VECan_Init
                0x080011e0      0x54c /tmp/ccm1xc3r.o
                0x080011e0                VECan_Init
 .text.update_can_message_356
                0x0800172c       0xbc /tmp/ccm1xc3r.o
                0x0800172c                update_can_message_356
 .text.VECan_send
                0x080017e8       0xb4 /tmp/ccm1xc3r.o
                0x080017e8                VECan_send
 .text.FDCAN1_init
                0x0800189c      0x30c /tmp/ccPtSApq.o
                0x0800189c                FDCAN1_init
 .text.FDCAN2_init
                0x08001ba8      0x338 /tmp/ccPtSApq.o
                0x08001ba8                FDCAN2_init
 .text.FDCAN1_transmit_message
                0x08001ee0       0xbc /tmp/ccPtSApq.o
                0x08001ee0                FDCAN1_transmit_message
 .text.FDCAN2_transmit_message
                0x08001f9c       0xc8 /tmp/ccPtSApq.o
                0x08001f9c                FDCAN2_transmit_message
 .text.convert_0x0426_to_milliampere
                0x08002064       0x46 /tmp/ccMKbytr.o
                0x08002064                convert_0x0426_to_milliampere
 .text.convert_0x0427_to_millivolts
                0x080020aa       0x32 /tmp/ccMKbytr.o
                0x080020aa                convert_0x0427_to_millivolts
 .text.convert_0x0428_to_temperature
                0x080020dc       0x32 /tmp/ccMKbytr.o
                0x080020dc                convert_0x0428_to_temperature
 .text.convert_0x0429_to_microvolts
                0x0800210e       0x46 /tmp/ccMKbytr.o
                0x0800210e                convert_0x0429_to_microvolts
 .text.convert_0x042A_to_power
                0x08002154       0x88 /tmp/ccMKbytr.o
                0x08002154                convert_0x042A_to_power
 .text.convert_0x042B_to_DieID
                0x080021dc       0x38 /tmp/ccMKbytr.o
                0x080021dc                convert_0x042B_to_DieID
 .text.convert_0x042C_to_ManufacturerID
                0x08002214       0x38 /tmp/ccMKbytr.o
                0x08002214                convert_0x042C_to_ManufacturerID
 .text.convert_0x042D_to_energy
                0x0800224c       0x6c /tmp/ccMKbytr.o
                0x0800224c                convert_0x042D_to_energy
 .text.convert_0x042E_to_charge
                0x080022b8       0x6c /tmp/ccMKbytr.o
                0x080022b8                convert_0x042E_to_charge
 .text.delay_us
                0x08002324       0x2c /tmp/ccJBD2DP.o
                0x08002324                delay_us
 .text.is_flash_operation_complete
                0x08002350       0x18 /tmp/ccJBD2DP.o
                0x08002350                is_flash_operation_complete
 .text.return_data_word
                0x08002368       0x48 /tmp/ccJBD2DP.o
                0x08002368                return_data_word
 .text.mx25l_init
                0x080023b0      0x194 /tmp/ccJBD2DP.o
                0x080023b0                mx25l_init
 .text.read_flash_id_sequence
                0x08002544       0xb0 /tmp/ccJBD2DP.o
                0x08002544                read_flash_id_sequence
 .text.flash_read_word
                0x080025f4       0xbc /tmp/ccJBD2DP.o
                0x080025f4                flash_read_word
 .text.SPI4_IRQHandler
                0x080026b0      0x164 /tmp/ccJBD2DP.o
                0x080026b0                SPI4_IRQHandler
 .text          0x08002814      0x134 /usr/lib/gcc/arm-none-eabi/13.2.1/../../../arm-none-eabi/lib/thumb/v7e-m+dp/hard/libc_nano.a(libc_a-memcpy.o)
                0x08002814                memcpy

.glue_7         0x08002948        0x0
 .glue_7        0x08002948        0x0 linker stubs

.glue_7t        0x08002948        0x0
 .glue_7t       0x08002948        0x0 linker stubs

.vfp11_veneer   0x08002948        0x0
 .vfp11_veneer  0x08002948        0x0 linker stubs

.v4_bx          0x08002948        0x0
 .v4_bx         0x08002948        0x0 linker stubs

.iplt           0x08002948        0x0
 .iplt          0x08002948        0x0 /tmp/ccIYB0BO.o

.rel.dyn        0x08002948        0x0
 .rel.iplt      0x08002948        0x0 /tmp/ccIYB0BO.o

.rodata
 *(.rodata*)

.ARM.exidx      0x08002948        0x8
 .ARM.exidx     0x08002948        0x8 /usr/lib/gcc/arm-none-eabi/13.2.1/../../../arm-none-eabi/lib/thumb/v7e-m+dp/hard/libc_nano.a(libc_a-memcpy.o)

.data           0x20000000       0x14 load address 0x08002950
                0x20000000                        _sdata = .
 *(.first_data)
 *(.data SORT_BY_NAME(.data.*))
 .data.SOH      0x20000000        0x2 /tmp/ccm1xc3r.o
                0x20000000                SOH
 .data.flash_operation_complete
                0x20000002        0x1 /tmp/ccJBD2DP.o
 *fill*         0x20000003        0x1 
 .data.snPart1  0x20000004        0x8 /tmp/ccm1xc3r.o
                0x20000004                snPart1
 .data.snPart2  0x2000000c        0x8 /tmp/ccm1xc3r.o
                0x2000000c                snPart2
                0x20000014                        _edata = .
                0x08002950                        _sidata = LOADADDR (.data)

.igot.plt       0x20000014        0x0 load address 0x08002964
 .igot.plt      0x20000014        0x0 /tmp/ccIYB0BO.o

.bss            0x20000014      0x1dd load address 0x08002964
                0x20000014                        _sbss = .
 *(.bss SORT_BY_NAME(.bss.*) COMMON)
 .bss.bus_voltage
                0x20000014        0x4 /tmp/ccIYB0BO.o
                0x20000014                bus_voltage
 .bss.charge    0x20000018        0x4 /tmp/ccIYB0BO.o
                0x20000018                charge
 .bss.charge_Ah
                0x2000001c        0x4 /tmp/ccIYB0BO.o
                0x2000001c                charge_Ah
 .bss.counter_loop
                0x20000020        0x4 /tmp/ccPtSApq.o
                0x20000020                counter_loop
 .bss.current   0x20000024        0x4 /tmp/ccIYB0BO.o
                0x20000024                current
 .bss.die_id    0x20000028        0x2 /tmp/ccIYB0BO.o
                0x20000028                die_id
 *fill*         0x2000002a        0x2 
 .bss.dt        0x2000002c        0x7 /tmp/ccIYB0BO.o
                0x2000002c                dt
 *fill*         0x20000033        0x1 
 .bss.energy    0x20000034        0x4 /tmp/ccIYB0BO.o
                0x20000034                energy
 .bss.energy_kWh
                0x20000038        0x4 /tmp/ccIYB0BO.o
                0x20000038                energy_kWh
 .bss.fifo_full_counter
                0x2000003c        0x4 /tmp/ccIYB0BO.o
                0x2000003c                fifo_full_counter
 .bss.fifo_message_lost_counter
                0x20000040        0x4 /tmp/ccIYB0BO.o
                0x20000040                fifo_message_lost_counter
 .bss.flash_byte
                0x20000044        0x4 /tmp/ccIYB0BO.o
                0x20000044                flash_byte
 .bss.flash_id  0x20000048        0x4 /tmp/ccIYB0BO.o
                0x20000048                flash_id
 .bss.flash_operation_type
                0x2000004c        0x1 /tmp/ccJBD2DP.o
 *fill*         0x2000004d        0x3 
 .bss.flash_read_buffer
                0x20000050        0x4 /tmp/ccJBD2DP.o
 .bss.flash_status_reg
                0x20000054        0x1 /tmp/ccJBD2DP.o
 .bss.kazonk    0x20000055        0x1 /tmp/ccIYB0BO.o
                0x20000055                kazonk
 .bss.manufacturer_id
                0x20000056        0x2 /tmp/ccIYB0BO.o
                0x20000056                manufacturer_id
 .bss.minutes   0x20000058        0x1 /tmp/ccIYB0BO.o
                0x20000058                minutes
 *fill*         0x20000059        0x3 
 .bss.power     0x2000005c        0x4 /tmp/ccIYB0BO.o
                0x2000005c                power
 .bss.rx_message_426
                0x20000060        0x8 /tmp/ccIYB0BO.o
                0x20000060                rx_message_426
 .bss.rx_message_427
                0x20000068        0x8 /tmp/ccIYB0BO.o
                0x20000068                rx_message_427
 .bss.rx_message_428
                0x20000070        0x8 /tmp/ccIYB0BO.o
                0x20000070                rx_message_428
 .bss.rx_message_429
                0x20000078        0x8 /tmp/ccIYB0BO.o
                0x20000078                rx_message_429
 .bss.rx_message_42A
                0x20000080        0x8 /tmp/ccIYB0BO.o
                0x20000080                rx_message_42A
 .bss.rx_message_42B
                0x20000088        0x8 /tmp/ccIYB0BO.o
                0x20000088                rx_message_42B
 .bss.rx_message_42C
                0x20000090        0x8 /tmp/ccIYB0BO.o
                0x20000090                rx_message_42C
 .bss.rx_message_42D
                0x20000098        0x8 /tmp/ccIYB0BO.o
                0x20000098                rx_message_42D
 .bss.rx_message_42E
                0x200000a0        0x8 /tmp/ccIYB0BO.o
                0x200000a0                rx_message_42E
 .bss.seconds   0x200000a8        0x1 /tmp/ccIYB0BO.o
                0x200000a8                seconds
 *fill*         0x200000a9        0x3 
 .bss.shunt_voltage
                0x200000ac        0x4 /tmp/ccIYB0BO.o
                0x200000ac                shunt_voltage
 .bss.splitter  0x200000b0        0x2 /tmp/ccm1xc3r.o
                0x200000b0                splitter
 *fill*         0x200000b2        0x2 
 .bss.temperature
                0x200000b4        0x4 /tmp/ccIYB0BO.o
                0x200000b4                temperature
 .bss.test_buffer
                0x200000b8        0x4 /tmp/ccIYB0BO.o
                0x200000b8                test_buffer
 .bss.threeeighty
                0x200000bc       0x10 /tmp/ccm1xc3r.o
                0x200000bc                threeeighty
 .bss.threeeightyone
                0x200000cc       0x10 /tmp/ccm1xc3r.o
                0x200000cc                threeeightyone
 .bss.threefiftyA
                0x200000dc       0x10 /tmp/ccm1xc3r.o
                0x200000dc                threefiftyA
 .bss.threefiftyE
                0x200000ec       0x10 /tmp/ccm1xc3r.o
                0x200000ec                threefiftyE
 .bss.threefiftyF
                0x200000fc       0x10 /tmp/ccm1xc3r.o
                0x200000fc                threefiftyF
 .bss.threefiftyfive
                0x2000010c       0x10 /tmp/ccm1xc3r.o
                0x2000010c                threefiftyfive
 .bss.threefiftyone
                0x2000011c       0x10 /tmp/ccm1xc3r.o
                0x2000011c                threefiftyone
 .bss.threefiftysix
                0x2000012c       0x10 /tmp/ccm1xc3r.o
                0x2000012c                threefiftysix
 .bss.threeseventyeight
                0x2000013c       0x10 /tmp/ccm1xc3r.o
                0x2000013c                threeseventyeight
 .bss.threeseventyfive
                0x2000014c       0x10 /tmp/ccm1xc3r.o
                0x2000014c                threeseventyfive
 .bss.threeseventyfour
                0x2000015c       0x10 /tmp/ccm1xc3r.o
                0x2000015c                threeseventyfour
 .bss.threeseventynine
                0x2000016c       0x10 /tmp/ccm1xc3r.o
                0x2000016c                threeseventynine
 .bss.threeseventyseven
                0x2000017c       0x10 /tmp/ccm1xc3r.o
                0x2000017c                threeseventyseven
 .bss.threeseventysix
                0x2000018c       0x10 /tmp/ccm1xc3r.o
                0x2000018c                threeseventysix
 .bss.threeseventythree
                0x2000019c       0x10 /tmp/ccm1xc3r.o
                0x2000019c                threeseventythree
 .bss.threeseventytwo
                0x200001ac       0x10 /tmp/ccm1xc3r.o
                0x200001ac                threeseventytwo
 .bss.threesixty
                0x200001bc       0x10 /tmp/ccm1xc3r.o
                0x200001bc                threesixty
 .bss.tick      0x200001cc        0x4 /tmp/ccIYB0BO.o
                0x200001cc                tick
 .bss.tx_127    0x200001d0       0x10 /tmp/ccIYB0BO.o
                0x200001d0                tx_127
 .bss.tx_128    0x200001e0       0x10 /tmp/ccIYB0BO.o
                0x200001e0                tx_128
 .bss.zonk      0x200001f0        0x1 /tmp/ccIYB0BO.o
                0x200001f0                zonk
                0x200001f1                        _ebss = .

.sram1_data
 *(.sram1_data)

.sram2_data
 *(.sram2_data)

.backup_data
 *(.backup_data)
                0x200001f8                        . = ALIGN (0x8)
                0x200001f8                        _end = .
OUTPUT(firmware.elf elf32-littlearm)
LOAD linker stubs

.debug_info     0x00000000     0x435a
 .debug_info    0x00000000     0x1295 /tmp/ccIYB0BO.o
 .debug_info    0x00001295      0xb3a /tmp/ccgdoYx5.o
 .debug_info    0x00001dcf      0x7b0 /tmp/ccKHLShl.o
 .debug_info    0x0000257f      0x40c /tmp/ccm1xc3r.o
 .debug_info    0x0000298b      0xbe5 /tmp/ccPtSApq.o
 .debug_info    0x00003570      0x2e1 /tmp/ccMKbytr.o
 .debug_info    0x00003851      0xad6 /tmp/ccJBD2DP.o
 .debug_info    0x00004327       0x33 /usr/lib/gcc/arm-none-eabi/13.2.1/../../../arm-none-eabi/lib/thumb/v7e-m+dp/hard/libc_nano.a(libc_a-memcpy.o)

.debug_abbrev   0x00000000      0xb90
 .debug_abbrev  0x00000000      0x291 /tmp/ccIYB0BO.o
 .debug_abbrev  0x00000291      0x105 /tmp/ccgdoYx5.o
 .debug_abbrev  0x00000396      0x132 /tmp/ccKHLShl.o
 .debug_abbrev  0x000004c8      0x146 /tmp/ccm1xc3r.o
 .debug_abbrev  0x0000060e      0x226 /tmp/ccPtSApq.o
 .debug_abbrev  0x00000834       0xa2 /tmp/ccMKbytr.o
 .debug_abbrev  0x000008d6      0x292 /tmp/ccJBD2DP.o
 .debug_abbrev  0x00000b68       0x28 /usr/lib/gcc/arm-none-eabi/13.2.1/../../../arm-none-eabi/lib/thumb/v7e-m+dp/hard/libc_nano.a(libc_a-memcpy.o)

.debug_aranges  0x00000000      0x6a8
 .debug_aranges
                0x00000000       0x50 /tmp/ccIYB0BO.o
 .debug_aranges
                0x00000050      0x4d0 /tmp/ccgdoYx5.o
 .debug_aranges
                0x00000520       0x28 /tmp/ccKHLShl.o
 .debug_aranges
                0x00000548       0x30 /tmp/ccm1xc3r.o
 .debug_aranges
                0x00000578       0x38 /tmp/ccPtSApq.o
 .debug_aranges
                0x000005b0       0x60 /tmp/ccMKbytr.o
 .debug_aranges
                0x00000610       0x78 /tmp/ccJBD2DP.o
 .debug_aranges
                0x00000688       0x20 /usr/lib/gcc/arm-none-eabi/13.2.1/../../../arm-none-eabi/lib/thumb/v7e-m+dp/hard/libc_nano.a(libc_a-memcpy.o)

.debug_rnglists
                0x00000000      0x4d8
 .debug_rnglists
                0x00000000       0x3a /tmp/ccIYB0BO.o
 .debug_rnglists
                0x0000003a      0x397 /tmp/ccgdoYx5.o
 .debug_rnglists
                0x000003d1       0x1b /tmp/ccKHLShl.o
 .debug_rnglists
                0x000003ec       0x22 /tmp/ccm1xc3r.o
 .debug_rnglists
                0x0000040e       0x29 /tmp/ccPtSApq.o
 .debug_rnglists
                0x00000437       0x44 /tmp/ccMKbytr.o
 .debug_rnglists
                0x0000047b       0x5d /tmp/ccJBD2DP.o

.debug_macro    0x00000000     0x3057
 .debug_macro   0x00000000      0x20e /tmp/ccIYB0BO.o
 .debug_macro   0x0000020e      0xade /tmp/ccIYB0BO.o
 .debug_macro   0x00000cec       0x22 /tmp/ccIYB0BO.o
 .debug_macro   0x00000d0e       0x54 /tmp/ccIYB0BO.o
 .debug_macro   0x00000d62       0x29 /tmp/ccIYB0BO.o
 .debug_macro   0x00000d8b       0x94 /tmp/ccIYB0BO.o
 .debug_macro   0x00000e1f       0x43 /tmp/ccIYB0BO.o
 .debug_macro   0x00000e62      0x103 /tmp/ccIYB0BO.o
 .debug_macro   0x00000f65       0x3a /tmp/ccIYB0BO.o
 .debug_macro   0x00000f9f      0x34e /tmp/ccIYB0BO.o
 .debug_macro   0x000012ed       0x89 /tmp/ccIYB0BO.o
 .debug_macro   0x00001376      0x379 /tmp/ccIYB0BO.o
 .debug_macro   0x000016ef       0x22 /tmp/ccIYB0BO.o
 .debug_macro   0x00001711       0x16 /tmp/ccIYB0BO.o
 .debug_macro   0x00001727       0xa5 /tmp/ccIYB0BO.o
 .debug_macro   0x000017cc       0x9b /tmp/ccIYB0BO.o
 .debug_macro   0x00001867       0x57 /tmp/ccIYB0BO.o
 .debug_macro   0x000018be      0x370 /tmp/ccIYB0BO.o
 .debug_macro   0x00001c2e       0x16 /tmp/ccIYB0BO.o
 .debug_macro   0x00001c44       0x4a /tmp/ccIYB0BO.o
 .debug_macro   0x00001c8e       0x34 /tmp/ccIYB0BO.o
 .debug_macro   0x00001cc2       0x10 /tmp/ccIYB0BO.o
 .debug_macro   0x00001cd2       0x52 /tmp/ccIYB0BO.o
 .debug_macro   0x00001d24       0x8e /tmp/ccIYB0BO.o
 .debug_macro   0x00001db2       0x1c /tmp/ccIYB0BO.o
 .debug_macro   0x00001dce      0x177 /tmp/ccIYB0BO.o
 .debug_macro   0x00001f45       0x16 /tmp/ccIYB0BO.o
 .debug_macro   0x00001f5b       0x29 /tmp/ccIYB0BO.o
 .debug_macro   0x00001f84       0x16 /tmp/ccIYB0BO.o
 .debug_macro   0x00001f9a       0x3c /tmp/ccIYB0BO.o
 .debug_macro   0x00001fd6      0x158 /tmp/ccIYB0BO.o
 .debug_macro   0x0000212e       0x1c /tmp/ccIYB0BO.o
 .debug_macro   0x0000214a       0x10 /tmp/ccIYB0BO.o
 .debug_macro   0x0000215a       0x1c /tmp/ccIYB0BO.o
 .debug_macro   0x00002176       0x16 /tmp/ccIYB0BO.o
 .debug_macro   0x0000218c      0x146 /tmp/ccIYB0BO.o
 .debug_macro   0x000022d2       0x76 /tmp/ccIYB0BO.o
 .debug_macro   0x00002348       0x1a /tmp/ccgdoYx5.o
 .debug_macro   0x00002362      0x159 /tmp/ccKHLShl.o
 .debug_macro   0x000024bb       0x34 /tmp/ccKHLShl.o
 .debug_macro   0x000024ef      0x11c /tmp/ccKHLShl.o
 .debug_macro   0x0000260b      0x379 /tmp/ccKHLShl.o
 .debug_macro   0x00002984      0x182 /tmp/ccm1xc3r.o
 .debug_macro   0x00002b06      0x184 /tmp/ccPtSApq.o
 .debug_macro   0x00002c8a      0x151 /tmp/ccMKbytr.o
 .debug_macro   0x00002ddb       0x9e /tmp/ccMKbytr.o
 .debug_macro   0x00002e79       0x16 /tmp/ccMKbytr.o
 .debug_macro   0x00002e8f      0x158 /tmp/ccJBD2DP.o
 .debug_macro   0x00002fe7       0x70 /tmp/ccJBD2DP.o

.debug_line     0x00000000     0x2f64
 .debug_line    0x00000000      0x750 /tmp/ccIYB0BO.o
 .debug_line    0x00000750      0xd11 /tmp/ccgdoYx5.o
 .debug_line    0x00001461      0x38c /tmp/ccKHLShl.o
 .debug_line    0x000017ed      0x451 /tmp/ccm1xc3r.o
 .debug_line    0x00001c3e      0x676 /tmp/ccPtSApq.o
 .debug_line    0x000022b4      0x3d4 /tmp/ccMKbytr.o
 .debug_line    0x00002688      0x823 /tmp/ccJBD2DP.o
 .debug_line    0x00002eab       0xb9 /usr/lib/gcc/arm-none-eabi/13.2.1/../../../arm-none-eabi/lib/thumb/v7e-m+dp/hard/libc_nano.a(libc_a-memcpy.o)

.debug_str      0x00000000     0xaccc
 .debug_str     0x00000000     0xaccc /tmp/ccIYB0BO.o
                               0x9e34 (size before relaxing)
 .debug_str     0x0000accc     0x446a /tmp/ccgdoYx5.o
 .debug_str     0x0000accc     0x8f7a /tmp/ccKHLShl.o
 .debug_str     0x0000accc     0x8deb /tmp/ccm1xc3r.o
 .debug_str     0x0000accc     0x90d3 /tmp/ccPtSApq.o
 .debug_str     0x0000accc     0x85fd /tmp/ccMKbytr.o
 .debug_str     0x0000accc     0x9338 /tmp/ccJBD2DP.o
 .debug_str     0x0000accc       0xac /usr/lib/gcc/arm-none-eabi/13.2.1/../../../arm-none-eabi/lib/thumb/v7e-m+dp/hard/libc_nano.a(libc_a-memcpy.o)

.comment        0x00000000       0x26
 .comment       0x00000000       0x26 /tmp/ccIYB0BO.o
                                 0x27 (size before relaxing)
 .comment       0x00000026       0x27 /tmp/ccgdoYx5.o
 .comment       0x00000026       0x27 /tmp/ccKHLShl.o
 .comment       0x00000026       0x27 /tmp/ccm1xc3r.o
 .comment       0x00000026       0x27 /tmp/ccPtSApq.o
 .comment       0x00000026       0x27 /tmp/ccMKbytr.o
 .comment       0x00000026       0x27 /tmp/ccJBD2DP.o

.ARM.attributes
                0x00000000       0x30
 .ARM.attributes
                0x00000000       0x32 /tmp/ccIYB0BO.o
 .ARM.attributes
                0x00000032       0x32 /tmp/ccgdoYx5.o
 .ARM.attributes
                0x00000064       0x32 /tmp/ccKHLShl.o
 .ARM.attributes
                0x00000096       0x32 /tmp/ccm1xc3r.o
 .ARM.attributes
                0x000000c8       0x32 /tmp/ccPtSApq.o
 .ARM.attributes
                0x000000fa       0x32 /tmp/ccMKbytr.o
 .ARM.attributes
                0x0000012c       0x32 /tmp/ccJBD2DP.o
 .ARM.attributes
                0x0000015e       0x1e /usr/lib/gcc/arm-none-eabi/13.2.1/../../../arm-none-eabi/lib/thumb/v7e-m+dp/hard/libc_nano.a(libc_a-memcpy.o)

.debug_frame    0x00000000     0x13f4
 .debug_frame   0x00000000      0x100 /tmp/ccIYB0BO.o
 .debug_frame   0x00000100      0xe30 /tmp/ccgdoYx5.o
 .debug_frame   0x00000f30       0x60 /tmp/ccKHLShl.o
 .debug_frame   0x00000f90       0x78 /tmp/ccm1xc3r.o
 .debug_frame   0x00001008       0xac /tmp/ccPtSApq.o
 .debug_frame   0x000010b4      0x178 /tmp/ccMKbytr.o
 .debug_frame   0x0000122c      0x1c8 /tmp/ccJBD2DP.o

.debug_line_str
                0x00000000       0x99
 .debug_line_str
                0x00000000       0x99 /usr/lib/gcc/arm-none-eabi/13.2.1/../../../arm-none-eabi/lib/thumb/v7e-m+dp/hard/libc_nano.a(libc_a-memcpy.o)
